; Function Attrs: mustprogress nofree norecurse nosync nounwind willreturn memory(argmem: read) uwtable
define void @_ZN11duckdb_zstd15COVER_best_waitEPNS_12COVER_best_sE(ptr noundef readonly captures(none) %0) local_unnamed_addr #0 {
  %.not = icmp eq ptr %0, null
  br i1 %.not, label %.loopexit, label %.preheader

.preheader:                                       ; preds = %1
  %2 = getelementptr inbounds nuw i8, ptr %0, i64 8
  %3 = load i64, ptr %2, align 8, !tbaa !64
  %.not2 = icmp eq i64 %3, 0
  tail call void @llvm.assume(i1 %.not2)
  br label %.loopexit

.loopexit:                                        ; preds = %.preheader, %1
  ret void
}